; Function Attrs: nofree norecurse nosync nounwind memory(argmem: readwrite) uwtable
define internal void @SDL_Convert51To71(ptr noundef writeonly captures(none) %0, ptr noundef readonly captures(none) %1, i32 noundef %2) #5 {
  %.not24 = icmp eq i32 %2, 0
  br i1 %.not24, label %._crit_edge, label %.lr.ph.preheader

.lr.ph.preheader:                                 ; preds = %3
  %4 = add nsw i32 %2, -1
  %5 = shl nsw i32 %4, 3
  %6 = sext i32 %5 to i64
  %7 = getelementptr inbounds float, ptr %0, i64 %6
  %8 = mul nsw i32 %4, 6
  %9 = sext i32 %8 to i64
  %10 = getelementptr inbounds float, ptr %1, i64 %9
  br label %.lr.ph

.lr.ph:                                           ; preds = %.lr.ph.preheader, %.lr.ph
  %.027 = phi i32 [ %29, %.lr.ph ], [ %2, %.lr.ph.preheader ]
  %.02226 = phi ptr [ %31, %.lr.ph ], [ %7, %.lr.ph.preheader ]
  %.02325 = phi ptr [ %30, %.lr.ph ], [ %10, %.lr.ph.preheader ]
  %11 = getelementptr inbounds nuw i8, ptr %.02226, i64 28
  store float 0.000000e+00, ptr %11, align 4
  %12 = getelementptr inbounds nuw i8, ptr %.02226, i64 24
  store float 0.000000e+00, ptr %12, align 4
  %13 = getelementptr inbounds nuw i8, ptr %.02325, i64 20
  %14 = load float, ptr %13, align 4
  %15 = getelementptr inbounds nuw i8, ptr %.02226, i64 20
  store float %14, ptr %15, align 4
  %16 = getelementptr inbounds nuw i8, ptr %.02325, i64 16
  %17 = load float, ptr %16, align 4
  %18 = getelementptr inbounds nuw i8, ptr %.02226, i64 16
  store float %17, ptr %18, align 4
  %19 = getelementptr inbounds nuw i8, ptr %.02325, i64 12
  %20 = load float, ptr %19, align 4
  %21 = getelementptr inbounds nuw i8, ptr %.02226, i64 12
  store float %20, ptr %21, align 4
  %22 = getelementptr inbounds nuw i8, ptr %.02325, i64 8
  %23 = load float, ptr %22, align 4
  %24 = getelementptr inbounds nuw i8, ptr %.02226, i64 8
  store float %23, ptr %24, align 4
  %25 = getelementptr inbounds nuw i8, ptr %.02325, i64 4
  %26 = load float, ptr %25, align 4
  %27 = getelementptr inbounds nuw i8, ptr %.02226, i64 4
  store float %26, ptr %27, align 4
  %28 = load float, ptr %.02325, align 4
  store float %28, ptr %.02226, align 4
  %29 = add nsw i32 %.027, -1
  %30 = getelementptr inbounds i8, ptr %.02325, i64 -24
  %31 = getelementptr inbounds i8, ptr %.02226, i64 -32
  %.not = icmp eq i32 %29, 0
  br i1 %.not, label %._crit_edge, label %.lr.ph, !llvm.loop !91

._crit_edge:                                      ; preds = %.lr.ph, %3
  ret void
}